; Function Attrs: nounwind uwtable
define ptr @Abc_SclBufferingPerform(ptr noundef %0, ptr noundef %1, ptr noundef %2) local_unnamed_addr #0 {
  %4 = tail call i32 @Abc_SclCheckNtk(ptr noundef %0, i32 noundef 0) #24
  %.not = icmp eq i32 %4, 0
  br i1 %.not, label %58, label %5

5:                                                ; preds = %3
  tail call void @Abc_SclReportDupFanins(ptr noundef %0) #24
  tail call void @Abc_SclMioGates2SclGates(ptr noundef %1, ptr noundef %0) #24
  %6 = tail call ptr @Bus_ManStart(ptr noundef %0, ptr noundef %1, ptr noundef %2)
  tail call void @Bus_ManReadInOutLoads(ptr noundef %6)
  %7 = load i32, ptr %2, align 4, !tbaa !118
  %8 = sitofp i32 %7 to double
  %9 = fmul double %8, 1.000000e-02
  %10 = fptrunc double %9 to float
  tail call void @Abc_SclBufSize(ptr noundef %6, float noundef %10)
  tail call void @Bus_ManStop(ptr noundef %6)
  tail call void @Abc_SclSclGates2MioGates(ptr noundef %1, ptr noundef %0) #24
  %11 = getelementptr inbounds nuw i8, ptr %0, i64 384
  %12 = load ptr, ptr %11, align 8, !tbaa !96
  %.not20 = icmp eq ptr %12, null
  br i1 %.not20, label %Vec_IntFillExtra.exit, label %13

13:                                               ; preds = %5
  %14 = getelementptr i8, ptr %0, i64 32
  %.val = load ptr, ptr %14, align 8, !tbaa !41
  %15 = getelementptr i8, ptr %.val, i64 4
  %.val.val = load i32, ptr %15, align 4, !tbaa !42
  %16 = getelementptr inbounds nuw i8, ptr %12, i64 4
  %17 = load i32, ptr %16, align 4, !tbaa !82
  %.not.i = icmp sgt i32 %.val.val, %17
  br i1 %.not.i, label %18, label %Vec_IntFillExtra.exit

18:                                               ; preds = %13
  %19 = load i32, ptr %12, align 8, !tbaa !111
  %20 = shl nsw i32 %19, 1
  %21 = icmp sgt i32 %.val.val, %20
  %.not.i.i = icmp slt i32 %19, %.val.val
  br i1 %21, label %22, label %34

22:                                               ; preds = %18
  br i1 %.not.i.i, label %23, label %Vec_IntGrow.exit.i

23:                                               ; preds = %22
  %24 = getelementptr inbounds nuw i8, ptr %12, i64 8
  %25 = load ptr, ptr %24, align 8, !tbaa !53
  %.not9.i.i = icmp eq ptr %25, null
  %26 = sext i32 %.val.val to i64
  %27 = shl nsw i64 %26, 2
  br i1 %.not9.i.i, label %30, label %28

28:                                               ; preds = %23
  %29 = tail call ptr @realloc(ptr noundef nonnull %25, i64 noundef %27) #27
  br label %32

30:                                               ; preds = %23
  %31 = tail call noalias ptr @malloc(i64 noundef %27) #26
  br label %32

32:                                               ; preds = %30, %28
  %33 = phi ptr [ %29, %28 ], [ %31, %30 ]
  store ptr %33, ptr %24, align 8, !tbaa !53
  br label %Vec_IntGrow.exit.sink.split.i

34:                                               ; preds = %18
  br i1 %.not.i.i, label %35, label %Vec_IntGrow.exit.i

35:                                               ; preds = %34
  %36 = getelementptr inbounds nuw i8, ptr %12, i64 8
  %37 = load ptr, ptr %36, align 8, !tbaa !53
  %.not9.i21.i = icmp eq ptr %37, null
  %38 = sext i32 %20 to i64
  %39 = shl nsw i64 %38, 2
  br i1 %.not9.i21.i, label %42, label %40

40:                                               ; preds = %35
  %41 = tail call ptr @realloc(ptr noundef nonnull %37, i64 noundef %39) #27
  br label %44

42:                                               ; preds = %35
  %43 = tail call noalias ptr @malloc(i64 noundef %39) #26
  br label %44

44:                                               ; preds = %42, %40
  %45 = phi ptr [ %41, %40 ], [ %43, %42 ]
  store ptr %45, ptr %36, align 8, !tbaa !53
  br label %Vec_IntGrow.exit.sink.split.i

Vec_IntGrow.exit.sink.split.i:                    ; preds = %44, %32
  %.sink.i = phi i32 [ %20, %44 ], [ %.val.val, %32 ]
  store i32 %.sink.i, ptr %12, align 8, !tbaa !111
  %.pre = load i32, ptr %16, align 4, !tbaa !82
  br label %Vec_IntGrow.exit.i

Vec_IntGrow.exit.i:                               ; preds = %Vec_IntGrow.exit.sink.split.i, %34, %22
  %46 = phi i32 [ %.pre, %Vec_IntGrow.exit.sink.split.i ], [ %17, %34 ], [ %17, %22 ]
  %47 = icmp slt i32 %46, %.val.val
  br i1 %47, label %.lr.ph.i, label %._crit_edge.i

.lr.ph.i:                                         ; preds = %Vec_IntGrow.exit.i
  %48 = getelementptr inbounds nuw i8, ptr %12, i64 8
  %49 = load ptr, ptr %48, align 8, !tbaa !53
  %50 = sext i32 %46 to i64
  %51 = shl nsw i64 %50, 2
  %scevgep.i = getelementptr i8, ptr %49, i64 %51
  %52 = xor i32 %46, -1
  %53 = add i32 %.val.val, %52
  %54 = zext i32 %53 to i64
  %55 = shl nuw nsw i64 %54, 2
  %56 = add nuw nsw i64 %55, 4
  tail call void @llvm.memset.p0.i64(ptr noundef nonnull align 4 dereferenceable(1) %scevgep.i, i8 0, i64 %56, i1 false), !tbaa !54
  br label %._crit_edge.i

._crit_edge.i:                                    ; preds = %.lr.ph.i, %Vec_IntGrow.exit.i
  store i32 %.val.val, ptr %16, align 4, !tbaa !82
  br label %Vec_IntFillExtra.exit

Vec_IntFillExtra.exit:                            ; preds = %._crit_edge.i, %13, %5
  %57 = tail call ptr @Abc_NtkDupDfs(ptr noundef nonnull %0) #24
  br label %58

58:                                               ; preds = %3, %Vec_IntFillExtra.exit
  %.0 = phi ptr [ %57, %Vec_IntFillExtra.exit ], [ null, %3 ]
  ret ptr %.0
}